target datalayout = "e-m:e-p270:32:32-p271:32:32-p272:64:64-i64:64-i128:128-f80:128-n8:16:32:64-S128"
target triple = "x86_64-pc-linux-gnu"

%union.pthread_mutex_t = type { %struct.__pthread_mutex_s }
%struct.__pthread_mutex_s = type { i32, i32, i32, i32, i32, i16, i16, %struct.__pthread_internal_list }
%struct.__pthread_internal_list = type { ptr, ptr }
%struct.ccan_list_head = type { %struct.ccan_list_node }
%struct.ccan_list_node = type { ptr, ptr }
%struct.rb_thread_struct = type { %struct.ccan_list_node, i64, ptr, ptr, ptr, ptr, %struct.rb_thread_sched_item, i8, i32, i64, ptr, i64, i64, i8, i8, i32, ptr, i64, i64, i64, i64, %union.pthread_mutex_t, %struct.rb_unblock_callback, i64, ptr, %struct.ccan_list_head, ptr, %union.anon, i32, i64, ptr, i64, i32, i64, ptr, %struct.rb_ext_config }
%struct.rb_thread_sched_item = type { %struct.anon.7, %struct.rb_thread_sched_waiting, i8, i8, ptr, ptr }
%struct.anon.7 = type { %struct.ccan_list_node, %struct.ccan_list_node, %struct.ccan_list_node, %struct.ccan_list_node, %struct.ccan_list_node }
%struct.rb_thread_sched_waiting = type { i32, %struct.anon.8, %struct.ccan_list_node }
%struct.anon.8 = type { i64, i32, i32 }
%struct.rb_unblock_callback = type { ptr, ptr }
%union.anon = type { %struct.anon.9 }
%struct.anon.9 = type { i64, i64, i32 }
%struct.rb_ext_config = type { i8 }
%struct.rb_execution_context_struct = type { ptr, i64, ptr, ptr, i32, i32, ptr, ptr, ptr, i64, i64, i64, ptr, i64, ptr, i64, i64, i8, i8, i64, %struct.anon.11 }
%struct.anon.11 = type { ptr, ptr, i64, [1 x %struct.__jmp_buf_tag] }
%struct.__jmp_buf_tag = type { [8 x i64], i32, %struct.__sigset_t }
%struct.__sigset_t = type { [16 x i64] }
%struct.rb_mutex_struct = type { ptr, ptr, %struct.ccan_list_head }
%struct.sync_waiter = type { i64, ptr, ptr, %struct.ccan_list_node }

@.str = private unnamed_addr constant [5 x i8] c"lock\00", align 1
@.str.1 = private unnamed_addr constant [19 x i8] c"pthread_mutex_lock\00", align 1
@.str.2 = private unnamed_addr constant [7 x i8] c"unlock\00", align 1
@.str.3 = private unnamed_addr constant [21 x i8] c"pthread_mutex_unlock\00", align 1
@.str.154 = private unnamed_addr constant [46 x i8] c"Attempt to unlock a mutex which is not locked\00", align 1
@.str.155 = private unnamed_addr constant [66 x i8] c"Attempt to unlock a mutex which is locked by another thread/fiber\00", align 1
@.str.157 = private unnamed_addr constant [21 x i8] c"../thread_sync.c:470\00", align 1
@.str.158 = private unnamed_addr constant [26 x i8] c"unexpected THREAD_STOPPED\00", align 1
@.str.159 = private unnamed_addr constant [25 x i8] c"unexpected THREAD_KILLED\00", align 1

; Function Attrs: inlinehint nounwind sspstrong memory(argmem: readwrite, inaccessiblemem: readwrite) uwtable
define internal void @rbimpl_atomic_or(ptr noundef nonnull %0, i32 noundef %1) #8 {
  %3 = alloca ptr, align 8
  %4 = alloca i32, align 4
  %5 = alloca i32, align 4
  %6 = alloca i32, align 4
  store ptr %0, ptr %3, align 8, !tbaa !131
  store i32 %1, ptr %4, align 4, !tbaa !15
  %7 = load ptr, ptr %3, align 8, !tbaa !131
  %8 = load i32, ptr %4, align 4, !tbaa !15
  store i32 %8, ptr %5, align 4, !tbaa !15
  %9 = load i32, ptr %5, align 4
  %10 = atomicrmw volatile or ptr %7, i32 %9 seq_cst, align 4
  %11 = or i32 %10, %9
  store i32 %11, ptr %6, align 4
  ret void
}

; Function Attrs: nounwind sspstrong uwtable
define internal void @mutex_debug(ptr noundef %0, ptr noundef %1) #0 {
  %3 = alloca ptr, align 8
  %4 = alloca ptr, align 8
  store ptr %0, ptr %3, align 8, !tbaa !17
  store ptr %1, ptr %4, align 8, !tbaa !14
  ret void
}

; Function Attrs: nounwind sspstrong uwtable
define dso_local void @rb_native_mutex_unlock(ptr noundef %0) #0 {
  %2 = alloca ptr, align 8
  %3 = alloca i32, align 4
  store ptr %0, ptr %2, align 8, !tbaa !14
  call void @llvm.lifetime.start.p0(i64 4, ptr %3) #16
  %4 = load ptr, ptr %2, align 8, !tbaa !14
  call void @mutex_debug(ptr noundef @.str.2, ptr noundef %4)
  %5 = load ptr, ptr %2, align 8, !tbaa !14
  %6 = call i32 @pthread_mutex_unlock(ptr noundef %5) #16
  store i32 %6, ptr %3, align 4, !tbaa !15
  %7 = icmp ne i32 %6, 0
  br i1 %7, label %8, label %10

8:                                                ; preds = %1
  %9 = load i32, ptr %3, align 4, !tbaa !15
  call void @rb_bug_errno(ptr noundef @.str.3, i32 noundef %9) #35
  unreachable

10:                                               ; preds = %1
  call void @llvm.lifetime.end.p0(i64 4, ptr %3) #16
  ret void
}

; Function Attrs: nounwind sspstrong uwtable
define internal void @threadptr_interrupt_locked(ptr noundef %0, i1 noundef zeroext %1) #0 {
  %3 = alloca ptr, align 8
  %4 = alloca i8, align 1
  store ptr %0, ptr %3, align 8, !tbaa !12
  %5 = zext i1 %1 to i8
  store i8 %5, ptr %4, align 1, !tbaa !51
  %6 = load i8, ptr %4, align 1, !tbaa !51, !range !54, !noundef !55
  %7 = trunc i8 %6 to i1
  br i1 %7, label %8, label %13

8:                                                ; preds = %2
  %9 = load ptr, ptr %3, align 8, !tbaa !12
  %10 = getelementptr inbounds nuw %struct.rb_thread_struct, ptr %9, i32 0, i32 5
  %11 = load ptr, ptr %10, align 8, !tbaa !75
  %12 = getelementptr inbounds nuw %struct.rb_execution_context_struct, ptr %11, i32 0, i32 4
  call void @rbimpl_atomic_or(ptr noundef %12, i32 noundef 8) #34
  br label %18

13:                                               ; preds = %2
  %14 = load ptr, ptr %3, align 8, !tbaa !12
  %15 = getelementptr inbounds nuw %struct.rb_thread_struct, ptr %14, i32 0, i32 5
  %16 = load ptr, ptr %15, align 8, !tbaa !75
  %17 = getelementptr inbounds nuw %struct.rb_execution_context_struct, ptr %16, i32 0, i32 4
  call void @rbimpl_atomic_or(ptr noundef %17, i32 noundef 2) #34
  br label %18

18:                                               ; preds = %13, %8
  %19 = load ptr, ptr %3, align 8, !tbaa !12
  %20 = getelementptr inbounds nuw %struct.rb_thread_struct, ptr %19, i32 0, i32 22
  %21 = getelementptr inbounds nuw %struct.rb_unblock_callback, ptr %20, i32 0, i32 0
  %22 = load ptr, ptr %21, align 8, !tbaa !89
  %23 = icmp ne ptr %22, null
  br i1 %23, label %24, label %33

24:                                               ; preds = %18
  %25 = load ptr, ptr %3, align 8, !tbaa !12
  %26 = getelementptr inbounds nuw %struct.rb_thread_struct, ptr %25, i32 0, i32 22
  %27 = getelementptr inbounds nuw %struct.rb_unblock_callback, ptr %26, i32 0, i32 0
  %28 = load ptr, ptr %27, align 8, !tbaa !89
  %29 = load ptr, ptr %3, align 8, !tbaa !12
  %30 = getelementptr inbounds nuw %struct.rb_thread_struct, ptr %29, i32 0, i32 22
  %31 = getelementptr inbounds nuw %struct.rb_unblock_callback, ptr %30, i32 0, i32 1
  %32 = load ptr, ptr %31, align 8, !tbaa !90
  call void %28(ptr noundef %32)
  br label %34

33:                                               ; preds = %18
  br label %34

34:                                               ; preds = %33, %24
  ret void
}

; Function Attrs: nounwind sspstrong uwtable
define dso_local void @rb_native_mutex_lock(ptr noundef %0) #0 {
  %2 = alloca ptr, align 8
  %3 = alloca i32, align 4
  store ptr %0, ptr %2, align 8, !tbaa !14
  call void @llvm.lifetime.start.p0(i64 4, ptr %3) #16
  %4 = load ptr, ptr %2, align 8, !tbaa !14
  call void @mutex_debug(ptr noundef @.str, ptr noundef %4)
  %5 = load ptr, ptr %2, align 8, !tbaa !14
  %6 = call i32 @pthread_mutex_lock(ptr noundef %5) #16
  store i32 %6, ptr %3, align 4, !tbaa !15
  %7 = icmp ne i32 %6, 0
  br i1 %7, label %8, label %10

8:                                                ; preds = %1
  %9 = load i32, ptr %3, align 4, !tbaa !15
  call void @rb_bug_errno(ptr noundef @.str.1, i32 noundef %9) #35
  unreachable

10:                                               ; preds = %1
  call void @llvm.lifetime.end.p0(i64 4, ptr %3) #16
  ret void
}

; Function Attrs: nounwind sspstrong uwtable
define internal void @threadptr_interrupt(ptr noundef %0, i32 noundef %1) #0 {
  %3 = alloca ptr, align 8
  %4 = alloca i32, align 4
  store ptr %0, ptr %3, align 8, !tbaa !12
  store i32 %1, ptr %4, align 4, !tbaa !15
  %5 = load ptr, ptr %3, align 8, !tbaa !12
  %6 = getelementptr inbounds nuw %struct.rb_thread_struct, ptr %5, i32 0, i32 21
  call void @rb_native_mutex_lock(ptr noundef %6)
  %7 = load ptr, ptr %3, align 8, !tbaa !12
  %8 = load i32, ptr %4, align 4, !tbaa !15
  %9 = icmp ne i32 %8, 0
  call void @threadptr_interrupt_locked(ptr noundef %7, i1 noundef zeroext %9)
  %10 = load ptr, ptr %3, align 8, !tbaa !12
  %11 = getelementptr inbounds nuw %struct.rb_thread_struct, ptr %10, i32 0, i32 21
  call void @rb_native_mutex_unlock(ptr noundef %11)
  ret void
}

; Function Attrs: inlinehint nounwind sspstrong uwtable
define internal void @ccan_list_node_init(ptr noundef %0) #1 {
  %2 = alloca ptr, align 8
  store ptr %0, ptr %2, align 8, !tbaa !130
  %3 = load ptr, ptr %2, align 8, !tbaa !130
  %4 = load ptr, ptr %2, align 8, !tbaa !130
  %5 = getelementptr inbounds nuw %struct.ccan_list_node, ptr %4, i32 0, i32 1
  store ptr %3, ptr %5, align 8, !tbaa !137
  %6 = load ptr, ptr %2, align 8, !tbaa !130
  %7 = getelementptr inbounds nuw %struct.ccan_list_node, ptr %6, i32 0, i32 0
  store ptr %3, ptr %7, align 8, !tbaa !125
  ret void
}

; Function Attrs: inlinehint nounwind sspstrong uwtable
define internal void @ccan_list_del_(ptr noundef %0, ptr noundef %1) #1 {
  %3 = alloca ptr, align 8
  %4 = alloca ptr, align 8
  store ptr %0, ptr %3, align 8, !tbaa !130
  store ptr %1, ptr %4, align 8, !tbaa !17
  %5 = load ptr, ptr %3, align 8, !tbaa !130
  %6 = getelementptr inbounds nuw %struct.ccan_list_node, ptr %5, i32 0, i32 1
  %7 = load ptr, ptr %6, align 8, !tbaa !137
  %8 = load ptr, ptr %3, align 8, !tbaa !130
  %9 = getelementptr inbounds nuw %struct.ccan_list_node, ptr %8, i32 0, i32 0
  %10 = load ptr, ptr %9, align 8, !tbaa !125
  %11 = getelementptr inbounds nuw %struct.ccan_list_node, ptr %10, i32 0, i32 1
  store ptr %7, ptr %11, align 8, !tbaa !137
  %12 = load ptr, ptr %3, align 8, !tbaa !130
  %13 = getelementptr inbounds nuw %struct.ccan_list_node, ptr %12, i32 0, i32 0
  %14 = load ptr, ptr %13, align 8, !tbaa !125
  %15 = load ptr, ptr %3, align 8, !tbaa !130
  %16 = getelementptr inbounds nuw %struct.ccan_list_node, ptr %15, i32 0, i32 1
  %17 = load ptr, ptr %16, align 8, !tbaa !137
  %18 = getelementptr inbounds nuw %struct.ccan_list_node, ptr %17, i32 0, i32 0
  store ptr %14, ptr %18, align 8, !tbaa !125
  ret void
}

; Function Attrs: nounwind sspstrong uwtable
define hidden void @rb_threadptr_interrupt(ptr noundef %0) #0 {
  %2 = alloca ptr, align 8
  store ptr %0, ptr %2, align 8, !tbaa !12
  %3 = load ptr, ptr %2, align 8, !tbaa !12
  call void @threadptr_interrupt(ptr noundef %3, i32 noundef 0)
  ret void
}

; Function Attrs: inlinehint nounwind sspstrong uwtable
define internal void @ccan_list_del_init_(ptr noundef %0, ptr noundef %1) #1 {
  %3 = alloca ptr, align 8
  %4 = alloca ptr, align 8
  store ptr %0, ptr %3, align 8, !tbaa !130
  store ptr %1, ptr %4, align 8, !tbaa !17
  %5 = load ptr, ptr %3, align 8, !tbaa !130
  %6 = load ptr, ptr %4, align 8, !tbaa !17
  call void @ccan_list_del_(ptr noundef %5, ptr noundef %6)
  %7 = load ptr, ptr %3, align 8, !tbaa !130
  call void @ccan_list_node_init(ptr noundef %7)
  ret void
}

; Function Attrs: inlinehint nounwind sspstrong uwtable
define internal ptr @ccan_list_node_from_off_(ptr noundef %0, i64 noundef %1) #1 {
  %3 = alloca ptr, align 8
  %4 = alloca i64, align 8
  store ptr %0, ptr %3, align 8, !tbaa !14
  store i64 %1, ptr %4, align 8, !tbaa !22
  %5 = load ptr, ptr %3, align 8, !tbaa !14
  %6 = load i64, ptr %4, align 8, !tbaa !22
  %7 = getelementptr i8, ptr %5, i64 %6
  ret ptr %7
}

; Function Attrs: inlinehint nounwind sspstrong uwtable
define internal ptr @ccan_list_node_to_off_(ptr noundef %0, i64 noundef %1) #1 {
  %3 = alloca ptr, align 8
  %4 = alloca i64, align 8
  store ptr %0, ptr %3, align 8, !tbaa !130
  store i64 %1, ptr %4, align 8, !tbaa !22
  %5 = load ptr, ptr %3, align 8, !tbaa !130
  %6 = load i64, ptr %4, align 8, !tbaa !22
  %7 = sub i64 0, %6
  %8 = getelementptr i8, ptr %5, i64 %7
  ret ptr %8
}

; Function Attrs: nounwind sspstrong uwtable
define internal void @thread_mutex_remove(ptr noundef %0, ptr noundef %1) #0 {
  %3 = alloca ptr, align 8
  %4 = alloca ptr, align 8
  %5 = alloca ptr, align 8
  store ptr %0, ptr %3, align 8, !tbaa !12
  store ptr %1, ptr %4, align 8, !tbaa !173
  call void @llvm.lifetime.start.p0(i64 8, ptr %5) #16
  %6 = load ptr, ptr %3, align 8, !tbaa !12
  %7 = getelementptr inbounds nuw %struct.rb_thread_struct, ptr %6, i32 0, i32 24
  store ptr %7, ptr %5, align 8, !tbaa !451
  br label %8

8:                                                ; preds = %19, %2
  %9 = load ptr, ptr %5, align 8, !tbaa !451
  %10 = load ptr, ptr %9, align 8, !tbaa !173
  %11 = icmp ne ptr %10, null
  br i1 %11, label %12, label %17

12:                                               ; preds = %8
  %13 = load ptr, ptr %5, align 8, !tbaa !451
  %14 = load ptr, ptr %13, align 8, !tbaa !173
  %15 = load ptr, ptr %4, align 8, !tbaa !173
  %16 = icmp ne ptr %14, %15
  br label %17

17:                                               ; preds = %12, %8
  %18 = phi i1 [ false, %8 ], [ %16, %12 ]
  br i1 %18, label %19, label %23

19:                                               ; preds = %17
  %20 = load ptr, ptr %5, align 8, !tbaa !451
  %21 = load ptr, ptr %20, align 8, !tbaa !173
  %22 = getelementptr inbounds nuw %struct.rb_mutex_struct, ptr %21, i32 0, i32 1
  store ptr %22, ptr %5, align 8, !tbaa !451
  br label %8, !llvm.loop !453

23:                                               ; preds = %17
  %24 = load ptr, ptr %5, align 8, !tbaa !451
  %25 = load ptr, ptr %24, align 8, !tbaa !173
  %26 = icmp ne ptr %25, null
  br i1 %26, label %27, label %34

27:                                               ; preds = %23
  %28 = load ptr, ptr %4, align 8, !tbaa !173
  %29 = getelementptr inbounds nuw %struct.rb_mutex_struct, ptr %28, i32 0, i32 1
  %30 = load ptr, ptr %29, align 8, !tbaa !206
  %31 = load ptr, ptr %5, align 8, !tbaa !451
  store ptr %30, ptr %31, align 8, !tbaa !173
  %32 = load ptr, ptr %4, align 8, !tbaa !173
  %33 = getelementptr inbounds nuw %struct.rb_mutex_struct, ptr %32, i32 0, i32 1
  store ptr null, ptr %33, align 8, !tbaa !206
  br label %34

34:                                               ; preds = %27, %23
  call void @llvm.lifetime.end.p0(i64 8, ptr %5) #16
  ret void
}

; Function Attrs: nounwind sspstrong uwtable
define internal ptr @rb_mutex_unlock_th(ptr noundef %0, ptr noundef %1, ptr noundef %2) #0 {
  %4 = alloca ptr, align 8
  %5 = alloca ptr, align 8
  %6 = alloca ptr, align 8
  %7 = alloca ptr, align 8
  %8 = alloca ptr, align 8
  %9 = alloca ptr, align 8
  %10 = alloca i32, align 4
  store ptr %0, ptr %5, align 8, !tbaa !173
  store ptr %1, ptr %6, align 8, !tbaa !12
  store ptr %2, ptr %7, align 8, !tbaa !177
  %11 = load ptr, ptr %5, align 8, !tbaa !173
  %12 = getelementptr inbounds nuw %struct.rb_mutex_struct, ptr %11, i32 0, i32 0
  %13 = load ptr, ptr %12, align 8, !tbaa !174
  %14 = icmp eq ptr %13, null
  br i1 %14, label %15, label %16

15:                                               ; preds = %3
  store ptr @.str.154, ptr %4, align 8
  br label %100

16:                                               ; preds = %3
  %17 = load ptr, ptr %5, align 8, !tbaa !173
  %18 = getelementptr inbounds nuw %struct.rb_mutex_struct, ptr %17, i32 0, i32 0
  %19 = load ptr, ptr %18, align 8, !tbaa !174
  %20 = load ptr, ptr %7, align 8, !tbaa !177
  %21 = icmp ne ptr %19, %20
  br i1 %21, label %22, label %23

22:                                               ; preds = %16
  store ptr @.str.155, ptr %4, align 8
  br label %100

23:                                               ; preds = %16
  br label %24

24:                                               ; preds = %23
  call void @llvm.lifetime.start.p0(i64 8, ptr %8) #16
  store ptr null, ptr %8, align 8, !tbaa !184
  call void @llvm.lifetime.start.p0(i64 8, ptr %9) #16
  %25 = load ptr, ptr %5, align 8, !tbaa !173
  %26 = getelementptr inbounds nuw %struct.rb_mutex_struct, ptr %25, i32 0, i32 0
  store ptr null, ptr %26, align 8, !tbaa !174
  %27 = load ptr, ptr %6, align 8, !tbaa !12
  %28 = load ptr, ptr %5, align 8, !tbaa !173
  call void @thread_mutex_remove(ptr noundef %27, ptr noundef %28)
  store ptr null, ptr %8, align 8, !tbaa !184
  %29 = load ptr, ptr %5, align 8, !tbaa !173
  %30 = getelementptr inbounds nuw %struct.rb_mutex_struct, ptr %29, i32 0, i32 2
  %31 = getelementptr inbounds nuw %struct.ccan_list_head, ptr %30, i32 0, i32 0
  %32 = getelementptr inbounds nuw %struct.ccan_list_node, ptr %31, i32 0, i32 0
  %33 = load ptr, ptr %32, align 8, !tbaa !60
  %34 = call ptr @ccan_list_node_to_off_(ptr noundef %33, i64 noundef 24)
  store ptr %34, ptr %8, align 8, !tbaa !184
  %35 = load ptr, ptr %8, align 8, !tbaa !184
  %36 = call ptr @ccan_list_node_from_off_(ptr noundef %35, i64 noundef 24)
  %37 = getelementptr inbounds nuw %struct.ccan_list_node, ptr %36, i32 0, i32 0
  %38 = load ptr, ptr %37, align 8, !tbaa !125
  %39 = call ptr @ccan_list_node_to_off_(ptr noundef %38, i64 noundef 24)
  store ptr %39, ptr %9, align 8, !tbaa !184
  br label %40

40:                                               ; preds = %91, %24
  %41 = load ptr, ptr %8, align 8, !tbaa !184
  %42 = call ptr @ccan_list_node_from_off_(ptr noundef %41, i64 noundef 24)
  %43 = load ptr, ptr %5, align 8, !tbaa !173
  %44 = getelementptr inbounds nuw %struct.rb_mutex_struct, ptr %43, i32 0, i32 2
  %45 = getelementptr inbounds nuw %struct.ccan_list_head, ptr %44, i32 0, i32 0
  %46 = icmp ne ptr %42, %45
  br i1 %46, label %47, label %98

47:                                               ; preds = %40
  %48 = load ptr, ptr %8, align 8, !tbaa !184
  %49 = getelementptr inbounds nuw %struct.sync_waiter, ptr %48, i32 0, i32 3
  call void @ccan_list_del_init_(ptr noundef %49, ptr noundef @.str.157)
  %50 = load ptr, ptr %8, align 8, !tbaa !184
  %51 = getelementptr inbounds nuw %struct.sync_waiter, ptr %50, i32 0, i32 1
  %52 = load ptr, ptr %51, align 8, !tbaa !180
  %53 = getelementptr inbounds nuw %struct.rb_thread_struct, ptr %52, i32 0, i32 31
  %54 = load i64, ptr %53, align 8, !tbaa !186
  %55 = icmp ne i64 %54, 4
  br i1 %55, label %56, label %75

56:                                               ; preds = %47
  %57 = load ptr, ptr %8, align 8, !tbaa !184
  %58 = getelementptr inbounds nuw %struct.sync_waiter, ptr %57, i32 0, i32 2
  %59 = load ptr, ptr %58, align 8, !tbaa !181
  %60 = icmp ne ptr %59, null
  br i1 %60, label %61, label %75

61:                                               ; preds = %56
  %62 = load ptr, ptr %8, align 8, !tbaa !184
  %63 = getelementptr inbounds nuw %struct.sync_waiter, ptr %62, i32 0, i32 1
  %64 = load ptr, ptr %63, align 8, !tbaa !180
  %65 = getelementptr inbounds nuw %struct.rb_thread_struct, ptr %64, i32 0, i32 31
  %66 = load i64, ptr %65, align 8, !tbaa !186
  %67 = load ptr, ptr %8, align 8, !tbaa !184
  %68 = getelementptr inbounds nuw %struct.sync_waiter, ptr %67, i32 0, i32 0
  %69 = load i64, ptr %68, align 8, !tbaa !178
  %70 = load ptr, ptr %8, align 8, !tbaa !184
  %71 = getelementptr inbounds nuw %struct.sync_waiter, ptr %70, i32 0, i32 2
  %72 = load ptr, ptr %71, align 8, !tbaa !181
  %73 = call i64 @rb_fiberptr_self(ptr noundef %72)
  %74 = call i64 @rb_fiber_scheduler_unblock(i64 noundef %66, i64 noundef %69, i64 noundef %73)
  store ptr null, ptr %4, align 8
  store i32 1, ptr %10, align 4
  br label %99

75:                                               ; preds = %56, %47
  %76 = load ptr, ptr %8, align 8, !tbaa !184
  %77 = getelementptr inbounds nuw %struct.sync_waiter, ptr %76, i32 0, i32 1
  %78 = load ptr, ptr %77, align 8, !tbaa !180
  %79 = getelementptr inbounds nuw %struct.rb_thread_struct, ptr %78, i32 0, i32 13
  %80 = load i8, ptr %79, align 8
  %81 = and i8 %80, 3
  %82 = zext i8 %81 to i32
  switch i32 %82, label %89 [
    i32 0, label %83
    i32 2, label %83
    i32 1, label %87
    i32 3, label %88
  ]

83:                                               ; preds = %75, %75
  %84 = load ptr, ptr %8, align 8, !tbaa !184
  %85 = getelementptr inbounds nuw %struct.sync_waiter, ptr %84, i32 0, i32 1
  %86 = load ptr, ptr %85, align 8, !tbaa !180
  call void @rb_threadptr_interrupt(ptr noundef %86)
  store ptr null, ptr %4, align 8
  store i32 1, ptr %10, align 4
  br label %99

87:                                               ; preds = %75
  call void (ptr, ...) @rb_bug(ptr noundef @.str.158) #39
  unreachable

88:                                               ; preds = %75
  call void (ptr, ...) @rb_bug(ptr noundef @.str.159) #39
  unreachable

89:                                               ; preds = %75
  br label %90

90:                                               ; preds = %89
  br label %91

91:                                               ; preds = %90
  %92 = load ptr, ptr %9, align 8, !tbaa !184
  store ptr %92, ptr %8, align 8, !tbaa !184
  %93 = load ptr, ptr %8, align 8, !tbaa !184
  %94 = call ptr @ccan_list_node_from_off_(ptr noundef %93, i64 noundef 24)
  %95 = getelementptr inbounds nuw %struct.ccan_list_node, ptr %94, i32 0, i32 0
  %96 = load ptr, ptr %95, align 8, !tbaa !125
  %97 = call ptr @ccan_list_node_to_off_(ptr noundef %96, i64 noundef 24)
  store ptr %97, ptr %9, align 8, !tbaa !184
  br label %40, !llvm.loop !187

98:                                               ; preds = %40
  store ptr null, ptr %4, align 8
  store i32 1, ptr %10, align 4
  br label %99

99:                                               ; preds = %98, %83, %61
  call void @llvm.lifetime.end.p0(i64 8, ptr %9) #16
  call void @llvm.lifetime.end.p0(i64 8, ptr %8) #16
  br label %100

100:                                              ; preds = %99, %22, %15
  %101 = load ptr, ptr %4, align 8
  ret ptr %101
}