; Function Attrs: nounwind sspstrong uwtable
define internal fastcc noundef ptr @rb_mutex_unlock_th(ptr noundef captures(address) %0, ptr noundef captures(none) %1, ptr noundef readnone captures(address) %2) unnamed_addr #0 {
  %4 = load ptr, ptr %0, align 8, !tbaa !174
  %5 = icmp eq ptr %4, null
  br i1 %5, label %rb_threadptr_interrupt.exit, label %6

6:                                                ; preds = %3
  %.not = icmp eq ptr %4, %2
  br i1 %.not, label %7, label %rb_threadptr_interrupt.exit

7:                                                ; preds = %6
  store ptr null, ptr %0, align 8, !tbaa !174
  %8 = getelementptr inbounds nuw i8, ptr %1, i64 352
  br label %9

9:                                                ; preds = %9, %7
  %.0.i = phi ptr [ %8, %7 ], [ %11, %9 ]
  %10 = load ptr, ptr %.0.i, align 8, !tbaa !187
  %.not.i = icmp eq ptr %10, null
  %.not10.i = icmp eq ptr %10, %0
  %or.cond.i = or i1 %.not.i, %.not10.i
  %11 = getelementptr inbounds nuw i8, ptr %10, i64 8
  br i1 %or.cond.i, label %.critedge.i, label %9, !llvm.loop !188

.critedge.i:                                      ; preds = %9
  br i1 %.not.i, label %thread_mutex_remove.exit, label %12

12:                                               ; preds = %.critedge.i
  %13 = getelementptr inbounds nuw i8, ptr %0, i64 8
  %14 = load ptr, ptr %13, align 8, !tbaa !178
  store ptr %14, ptr %.0.i, align 8, !tbaa !187
  store ptr null, ptr %13, align 8, !tbaa !178
  br label %thread_mutex_remove.exit

thread_mutex_remove.exit:                         ; preds = %.critedge.i, %12
  %15 = getelementptr inbounds nuw i8, ptr %0, i64 16
  %16 = load ptr, ptr %15, align 8, !tbaa !54
  %17 = getelementptr i8, ptr %16, i64 -24
  %.not22 = icmp eq ptr %16, %15
  br i1 %.not22, label %rb_threadptr_interrupt.exit, label %18

18:                                               ; preds = %thread_mutex_remove.exit
  %19 = load ptr, ptr %16, align 8, !tbaa !84
  %20 = getelementptr inbounds nuw i8, ptr %16, i64 8
  %21 = load ptr, ptr %20, align 8, !tbaa !83
  %22 = getelementptr inbounds nuw i8, ptr %19, i64 8
  store ptr %21, ptr %22, align 8, !tbaa !83
  store ptr %19, ptr %21, align 8, !tbaa !84
  store ptr %16, ptr %20, align 8, !tbaa !83
  store ptr %16, ptr %16, align 8, !tbaa !84
  %23 = getelementptr i8, ptr %16, i64 -16
  %24 = load ptr, ptr %23, align 8, !tbaa !181
  %25 = getelementptr inbounds nuw i8, ptr %24, i64 432
  %26 = load i64, ptr %25, align 8, !tbaa !189
  %.not23 = icmp eq i64 %26, 4
  br i1 %.not23, label %34, label %27

27:                                               ; preds = %18
  %28 = getelementptr i8, ptr %16, i64 -8
  %29 = load ptr, ptr %28, align 8, !tbaa !182
  %.not24 = icmp eq ptr %29, null
  br i1 %.not24, label %34, label %30

30:                                               ; preds = %27
  %31 = load i64, ptr %17, align 8, !tbaa !179
  %32 = tail call i64 @rb_fiberptr_self(ptr noundef nonnull %29) #17
  %33 = tail call i64 @rb_fiber_scheduler_unblock(i64 noundef %26, i64 noundef %31, i64 noundef %32) #17
  br label %rb_threadptr_interrupt.exit

34:                                               ; preds = %27, %18
  %35 = getelementptr inbounds nuw i8, ptr %24, i64 240
  %36 = load i8, ptr %35, align 8
  %37 = and i8 %36, 3
  switch i8 %37, label %default.unreachable25 [
    i8 0, label %38
    i8 2, label %38
    i8 1, label %53
    i8 3, label %54
  ]

38:                                               ; preds = %34, %34
  %39 = getelementptr inbounds nuw i8, ptr %24, i64 288
  %40 = tail call i32 @pthread_mutex_lock(ptr noundef nonnull %39) #17
  %.not.i.i.i = icmp eq i32 %40, 0
  br i1 %.not.i.i.i, label %rb_native_mutex_lock.exit.i.i, label %41

41:                                               ; preds = %38
  tail call void @rb_bug_errno(ptr noundef nonnull @.str.1, i32 noundef %40) #38
  unreachable

rb_native_mutex_lock.exit.i.i:                    ; preds = %38
  %42 = getelementptr inbounds nuw i8, ptr %24, i64 48
  %43 = load ptr, ptr %42, align 8, !tbaa !74
  %44 = getelementptr inbounds nuw i8, ptr %43, i64 32
  %45 = atomicrmw volatile or ptr %44, i32 2 seq_cst, align 4
  %46 = getelementptr inbounds nuw i8, ptr %24, i64 328
  %47 = load ptr, ptr %46, align 8, !tbaa !72
  %.not.i3.i.i = icmp eq ptr %47, null
  br i1 %.not.i3.i.i, label %threadptr_interrupt_locked.exit.i.i, label %48

48:                                               ; preds = %rb_native_mutex_lock.exit.i.i
  %49 = getelementptr inbounds nuw i8, ptr %24, i64 336
  %50 = load ptr, ptr %49, align 8, !tbaa !73
  tail call void %47(ptr noundef %50) #17
  br label %threadptr_interrupt_locked.exit.i.i

threadptr_interrupt_locked.exit.i.i:              ; preds = %48, %rb_native_mutex_lock.exit.i.i
  %51 = tail call i32 @pthread_mutex_unlock(ptr noundef nonnull %39) #17
  %.not.i4.i.i = icmp eq i32 %51, 0
  br i1 %.not.i4.i.i, label %rb_threadptr_interrupt.exit, label %52

52:                                               ; preds = %threadptr_interrupt_locked.exit.i.i
  tail call void @rb_bug_errno(ptr noundef nonnull @.str.3, i32 noundef %51) #38
  unreachable

53:                                               ; preds = %34
  tail call void (ptr, ...) @rb_bug(ptr noundef nonnull @.str.158) #47
  unreachable

54:                                               ; preds = %34
  tail call void (ptr, ...) @rb_bug(ptr noundef nonnull @.str.159) #47
  unreachable

default.unreachable25:                            ; preds = %34
  unreachable

rb_threadptr_interrupt.exit:                      ; preds = %threadptr_interrupt_locked.exit.i.i, %30, %thread_mutex_remove.exit, %6, %3
  %.0 = phi ptr [ @.str.154, %3 ], [ @.str.155, %6 ], [ null, %thread_mutex_remove.exit ], [ null, %30 ], [ null, %threadptr_interrupt_locked.exit.i.i ]
  ret ptr %.0
}